target datalayout = "e-m:e-p270:32:32-p271:32:32-p272:64:64-i64:64-i128:128-f80:128-n8:16:32:64-S128"
target triple = "x86_64-pc-linux-gnu"

%"class.icu_77::SkeletonFields" = type { [16 x i8], [16 x i8] }

; Function Attrs: mustprogress nounwind uwtable
define void @_ZN6icu_7714SkeletonFields8populateEiDsi(ptr noundef nonnull align 1 dereferenceable(32) %0, i32 noundef %1, i16 noundef zeroext %2, i32 noundef %3) #0 align 2 {
  %5 = alloca ptr, align 8
  %6 = alloca i32, align 4
  %7 = alloca i16, align 2
  %8 = alloca i32, align 4
  store ptr %0, ptr %5, align 8, !tbaa !208
  store i32 %1, ptr %6, align 4, !tbaa !14
  store i16 %2, ptr %7, align 2, !tbaa !104
  store i32 %3, ptr %8, align 4, !tbaa !14
  %9 = load ptr, ptr %5, align 8
  %10 = load i16, ptr %7, align 2, !tbaa !104
  %11 = trunc i16 %10 to i8
  %12 = getelementptr inbounds nuw %"class.icu_77::SkeletonFields", ptr %9, i32 0, i32 0
  %13 = load i32, ptr %6, align 4, !tbaa !14
  %14 = sext i32 %13 to i64
  %15 = getelementptr inbounds [16 x i8], ptr %12, i64 0, i64 %14
  store i8 %11, ptr %15, align 1, !tbaa !62
  %16 = load i32, ptr %8, align 4, !tbaa !14
  %17 = trunc i32 %16 to i8
  %18 = getelementptr inbounds nuw %"class.icu_77::SkeletonFields", ptr %9, i32 0, i32 1
  %19 = load i32, ptr %6, align 4, !tbaa !14
  %20 = sext i32 %19 to i64
  %21 = getelementptr inbounds [16 x i8], ptr %18, i64 0, i64 %20
  store i8 %17, ptr %21, align 1, !tbaa !62
  ret void
}