; Function Attrs: mustprogress nofree norecurse nosync nounwind willreturn memory(argmem: write) uwtable
define void @_ZN6icu_7714SkeletonFields8populateEiDsi(ptr noundef nonnull writeonly align 1 captures(none) dereferenceable(32) %0, i32 noundef %1, i16 noundef zeroext %2, i32 noundef %3) local_unnamed_addr #24 align 2 {
  %5 = trunc i16 %2 to i8
  %6 = sext i32 %1 to i64
  %7 = getelementptr inbounds [16 x i8], ptr %0, i64 0, i64 %6
  store i8 %5, ptr %7, align 1, !tbaa !17
  %8 = trunc i32 %3 to i8
  %9 = getelementptr inbounds nuw i8, ptr %0, i64 16
  %10 = getelementptr inbounds [16 x i8], ptr %9, i64 0, i64 %6
  store i8 %8, ptr %10, align 1, !tbaa !17
  ret void
}